target datalayout = "e-m:e-p270:32:32-p271:32:32-p272:64:64-i64:64-i128:128-f80:128-n8:16:32:64-S128"
target triple = "x86_64-pc-linux-gnu"

%"struct.pxrInternal_v0_24__pxrReserved__::SdfTupleDimensions" = type { [2 x i64], i64 }

; Function Attrs: mustprogress nounwind uwtable
define noundef zeroext i1 @_ZNK32pxrInternal_v0_24__pxrReserved__18SdfTupleDimensionseqERKS0_(ptr noundef nonnull align 8 dereferenceable(24) %0, ptr noundef nonnull align 8 dereferenceable(24) %1) #0 align 2 {
  %3 = alloca i1, align 1
  %4 = alloca ptr, align 8
  %5 = alloca ptr, align 8
  store ptr %0, ptr %4, align 8
  store ptr %1, ptr %5, align 8
  %6 = load ptr, ptr %4, align 8
  %7 = getelementptr inbounds nuw %"struct.pxrInternal_v0_24__pxrReserved__::SdfTupleDimensions", ptr %6, i32 0, i32 1
  %8 = load i64, ptr %7, align 8
  %9 = load ptr, ptr %5, align 8
  %10 = getelementptr inbounds nuw %"struct.pxrInternal_v0_24__pxrReserved__::SdfTupleDimensions", ptr %9, i32 0, i32 1
  %11 = load i64, ptr %10, align 8
  %12 = icmp ne i64 %8, %11
  br i1 %12, label %13, label %14

13:                                               ; preds = %2
  store i1 false, ptr %3, align 1
  br label %43

14:                                               ; preds = %2
  %15 = getelementptr inbounds nuw %"struct.pxrInternal_v0_24__pxrReserved__::SdfTupleDimensions", ptr %6, i32 0, i32 1
  %16 = load i64, ptr %15, align 8
  %17 = icmp uge i64 %16, 1
  br i1 %17, label %18, label %28

18:                                               ; preds = %14
  %19 = getelementptr inbounds nuw %"struct.pxrInternal_v0_24__pxrReserved__::SdfTupleDimensions", ptr %6, i32 0, i32 0
  %20 = getelementptr inbounds [2 x i64], ptr %19, i64 0, i64 0
  %21 = load i64, ptr %20, align 8
  %22 = load ptr, ptr %5, align 8
  %23 = getelementptr inbounds nuw %"struct.pxrInternal_v0_24__pxrReserved__::SdfTupleDimensions", ptr %22, i32 0, i32 0
  %24 = getelementptr inbounds [2 x i64], ptr %23, i64 0, i64 0
  %25 = load i64, ptr %24, align 8
  %26 = icmp ne i64 %21, %25
  br i1 %26, label %27, label %28

27:                                               ; preds = %18
  store i1 false, ptr %3, align 1
  br label %43

28:                                               ; preds = %18, %14
  %29 = getelementptr inbounds nuw %"struct.pxrInternal_v0_24__pxrReserved__::SdfTupleDimensions", ptr %6, i32 0, i32 1
  %30 = load i64, ptr %29, align 8
  %31 = icmp uge i64 %30, 2
  br i1 %31, label %32, label %42

32:                                               ; preds = %28
  %33 = getelementptr inbounds nuw %"struct.pxrInternal_v0_24__pxrReserved__::SdfTupleDimensions", ptr %6, i32 0, i32 0
  %34 = getelementptr inbounds [2 x i64], ptr %33, i64 0, i64 1
  %35 = load i64, ptr %34, align 8
  %36 = load ptr, ptr %5, align 8
  %37 = getelementptr inbounds nuw %"struct.pxrInternal_v0_24__pxrReserved__::SdfTupleDimensions", ptr %36, i32 0, i32 0
  %38 = getelementptr inbounds [2 x i64], ptr %37, i64 0, i64 1
  %39 = load i64, ptr %38, align 8
  %40 = icmp ne i64 %35, %39
  br i1 %40, label %41, label %42

41:                                               ; preds = %32
  store i1 false, ptr %3, align 1
  br label %43

42:                                               ; preds = %32, %28
  store i1 true, ptr %3, align 1
  br label %43

43:                                               ; preds = %42, %41, %27, %13
  %44 = load i1, ptr %3, align 1
  ret i1 %44
}