; Function Attrs: mustprogress nofree norecurse nosync nounwind willreturn memory(argmem: read) uwtable
define noundef zeroext i1 @_ZNK32pxrInternal_v0_24__pxrReserved__18SdfTupleDimensionseqERKS0_(ptr noundef nonnull readonly align 8 captures(none) dereferenceable(24) %0, ptr noundef nonnull readonly align 8 captures(none) dereferenceable(24) %1) local_unnamed_addr #0 align 2 {
  %3 = getelementptr inbounds nuw i8, ptr %0, i64 16
  %4 = load i64, ptr %3, align 8
  %5 = getelementptr inbounds nuw i8, ptr %1, i64 16
  %6 = load i64, ptr %5, align 8
  %.not = icmp eq i64 %4, %6
  br i1 %.not, label %7, label %17

7:                                                ; preds = %2
  %.not6 = icmp eq i64 %4, 0
  br i1 %.not6, label %.thread, label %8

8:                                                ; preds = %7
  %9 = load i64, ptr %0, align 8
  %10 = load i64, ptr %1, align 8
  %.not7 = icmp eq i64 %9, %10
  br i1 %.not7, label %11, label %17

11:                                               ; preds = %8
  %.not9 = icmp eq i64 %4, 1
  br i1 %.not9, label %.thread, label %12

12:                                               ; preds = %11
  %13 = getelementptr inbounds nuw i8, ptr %0, i64 8
  %14 = load i64, ptr %13, align 8
  %15 = getelementptr inbounds nuw i8, ptr %1, i64 8
  %16 = load i64, ptr %15, align 8
  %.not8 = icmp eq i64 %14, %16
  br i1 %.not8, label %.thread, label %17

.thread:                                          ; preds = %7, %12, %11
  br label %17

17:                                               ; preds = %12, %8, %2, %.thread
  %.0 = phi i1 [ true, %.thread ], [ false, %2 ], [ false, %8 ], [ false, %12 ]
  ret i1 %.0
}